; Function Attrs: nounwind uwtable
define hidden i32 @SDL_GetDisplayForRect_REAL(ptr noundef readonly captures(address_is_null) %0) local_unnamed_addr #0 {
  %.not = icmp eq ptr %0, null
  br i1 %.not, label %2, label %4

2:                                                ; preds = %1
  %3 = tail call zeroext i1 (ptr, ...) @SDL_SetError_REAL(ptr noundef nonnull @.str.2, ptr noundef nonnull @.str.12) #19
  br label %13

4:                                                ; preds = %1
  %5 = load i32, ptr %0, align 4
  %6 = getelementptr inbounds nuw i8, ptr %0, i64 4
  %7 = load i32, ptr %6, align 4
  %8 = getelementptr inbounds nuw i8, ptr %0, i64 8
  %9 = load i32, ptr %8, align 4
  %10 = getelementptr inbounds nuw i8, ptr %0, i64 12
  %11 = load i32, ptr %10, align 4
  %12 = tail call fastcc i32 @GetDisplayForRect(i32 noundef %5, i32 noundef %7, i32 noundef %9, i32 noundef %11)
  br label %13

13:                                               ; preds = %4, %2
  %.0 = phi i32 [ %12, %4 ], [ 0, %2 ]
  ret i32 %.0
}